(dp0
Vdomain
p1
Vwebzj.reg.163.com
p2
sVname
p3
Vjsessionid-cpta
p4
sVvalue
p5
V2%5CO26T%5CjmbM6au%5CqzM8qnlgeR%5Cd3wRNX6HL3Z7Pnp6pR%2B4%5CXBvTKO7vrXnTbY1m5SXtmvC7Of3okEK9W%5COiSrLQc9D%2BydUawQA462xTO5RzqDcfKa71%2FSr6GdEYz3k23HRA%2BKJ1UrfAnNZndu5bUuoDpNKRJtjzfZgugRJUoL%5CUpgiWE%3A1467706596373
p6
sVexpiry
p7
I1467706596
sVpath
p8
V/
p9
sVhttpOnly
p10
I00
sVsecure
p11
I00
s.